; ModuleID = '19/298.c'
source_filename = "19/298.c"
target datalayout = "e-m:e-p270:32:32-p271:32:32-p272:64:64-i64:64-f80:128-n8:16:32:64-S128"
target triple = "x86_64-pc-linux-gnu"

; Function Attrs: noinline nounwind uwtable
define dso_local void @main() #0 {
  %1 = alloca [100 x i8], align 16
  %2 = alloca [100 x i8], align 16
  %3 = alloca [100 x i8], align 16
  %4 = alloca [100 x i8], align 16
  %5 = alloca [100 x i8], align 16
  %6 = alloca i32, align 4
  %7 = alloca i32, align 4
  %8 = alloca i32, align 4
  %9 = alloca i32, align 4
  %10 = alloca i32, align 4
  %11 = bitcast [100 x i8]* %1 to i8*
  call void @llvm.memset.p0i8.i64(i8* align 16 %11, i8 0, i64 100, i1 false)
  %12 = bitcast [100 x i8]* %2 to i8*
  call void @llvm.memset.p0i8.i64(i8* align 16 %12, i8 0, i64 100, i1 false)
  %13 = bitcast [100 x i8]* %3 to i8*
  call void @llvm.memset.p0i8.i64(i8* align 16 %13, i8 0, i64 100, i1 false)
  %14 = bitcast [100 x i8]* %4 to i8*
  call void @llvm.memset.p0i8.i64(i8* align 16 %14, i8 0, i64 100, i1 false)
  %15 = bitcast [100 x i8]* %5 to i8*
  call void @llvm.memset.p0i8.i64(i8* align 16 %15, i8 0, i64 100, i1 false)
  store i32 0, i32* %7, align 4
  %16 = getelementptr inbounds [100 x i8], [100 x i8]* %1, i64 0, i64 0
  %17 = call i32 (i8*, ...) bitcast (i32 (...)* @gets to i32 (i8*, ...)*)(i8* %16)
  %18 = getelementptr inbounds [100 x i8], [100 x i8]* %3, i64 0, i64 0
  %19 = call i32 (i8*, ...) bitcast (i32 (...)* @gets to i32 (i8*, ...)*)(i8* %18)
  %20 = getelementptr inbounds [100 x i8], [100 x i8]* %4, i64 0, i64 0
  %21 = call i32 (i8*, ...) bitcast (i32 (...)* @gets to i32 (i8*, ...)*)(i8* %20)
  %22 = getelementptr inbounds [100 x i8], [100 x i8]* %1, i64 0, i64 0
  %23 = call i64 @strlen(i8* %22) #5
  %24 = trunc i64 %23 to i32
  store i32 %24, i32* %9, align 4
  store i32 0, i32* %6, align 4
  br label %25

25:                                               ; preds = %149, %0
  %26 = load i32, i32* %6, align 4
  %27 = load i32, i32* %9, align 4
  %28 = icmp sle i32 %26, %27
  br i1 %28, label %29, label %152

29:                                               ; preds = %25
  %30 = load i32, i32* %6, align 4
  %31 = sext i32 %30 to i64
  %32 = getelementptr inbounds [100 x i8], [100 x i8]* %1, i64 0, i64 %31
  %33 = load i8, i8* %32, align 1
  %34 = sext i8 %33 to i32
  %35 = icmp ne i32 %34, 32
  br i1 %35, label %36, label %53

36:                                               ; preds = %29
  %37 = load i32, i32* %6, align 4
  %38 = sext i32 %37 to i64
  %39 = getelementptr inbounds [100 x i8], [100 x i8]* %1, i64 0, i64 %38
  %40 = load i8, i8* %39, align 1
  %41 = sext i8 %40 to i32
  %42 = icmp ne i32 %41, 0
  br i1 %42, label %43, label %53

43:                                               ; preds = %36
  %44 = load i32, i32* %6, align 4
  %45 = sext i32 %44 to i64
  %46 = getelementptr inbounds [100 x i8], [100 x i8]* %1, i64 0, i64 %45
  %47 = load i8, i8* %46, align 1
  %48 = load i32, i32* %7, align 4
  %49 = sext i32 %48 to i64
  %50 = getelementptr inbounds [100 x i8], [100 x i8]* %5, i64 0, i64 %49
  store i8 %47, i8* %50, align 1
  %51 = load i32, i32* %7, align 4
  %52 = add nsw i32 %51, 1
  store i32 %52, i32* %7, align 4
  br label %148

53:                                               ; preds = %36, %29
  store i32 0, i32* %7, align 4
  %54 = getelementptr inbounds [100 x i8], [100 x i8]* %5, i64 0, i64 0
  %55 = call i64 @strlen(i8* %54) #5
  %56 = trunc i64 %55 to i32
  store i32 %56, i32* %10, align 4
  %57 = getelementptr inbounds [100 x i8], [100 x i8]* %5, i64 0, i64 0
  %58 = getelementptr inbounds [100 x i8], [100 x i8]* %3, i64 0, i64 0
  %59 = call i32 @strcmp(i8* %57, i8* %58) #5
  %60 = icmp eq i32 %59, 0
  br i1 %60, label %61, label %134

61:                                               ; preds = %53
  %62 = load i32, i32* %6, align 4
  %63 = load i32, i32* %10, align 4
  %64 = sub nsw i32 %62, %63
  store i32 %64, i32* %8, align 4
  br label %65

65:                                               ; preds = %73, %61
  %66 = load i32, i32* %8, align 4
  %67 = load i32, i32* %6, align 4
  %68 = icmp slt i32 %66, %67
  br i1 %68, label %69, label %76

69:                                               ; preds = %65
  %70 = load i32, i32* %8, align 4
  %71 = sext i32 %70 to i64
  %72 = getelementptr inbounds [100 x i8], [100 x i8]* %1, i64 0, i64 %71
  store i8 0, i8* %72, align 1
  br label %73

73:                                               ; preds = %69
  %74 = load i32, i32* %8, align 4
  %75 = add nsw i32 %74, 1
  store i32 %75, i32* %8, align 4
  br label %65

76:                                               ; preds = %65
  %77 = load i32, i32* %6, align 4
  store i32 %77, i32* %8, align 4
  br label %78

78:                                               ; preds = %95, %76
  %79 = load i32, i32* %8, align 4
  %80 = load i32, i32* %9, align 4
  %81 = icmp slt i32 %79, %80
  br i1 %81, label %82, label %98

82:                                               ; preds = %78
  %83 = load i32, i32* %8, align 4
  %84 = sext i32 %83 to i64
  %85 = getelementptr inbounds [100 x i8], [100 x i8]* %1, i64 0, i64 %84
  %86 = load i8, i8* %85, align 1
  %87 = load i32, i32* %8, align 4
  %88 = load i32, i32* %6, align 4
  %89 = sub nsw i32 %87, %88
  %90 = sext i32 %89 to i64
  %91 = getelementptr inbounds [100 x i8], [100 x i8]* %2, i64 0, i64 %90
  store i8 %86, i8* %91, align 1
  %92 = load i32, i32* %8, align 4
  %93 = sext i32 %92 to i64
  %94 = getelementptr inbounds [100 x i8], [100 x i8]* %1, i64 0, i64 %93
  store i8 0, i8* %94, align 1
  br label %95

95:                                               ; preds = %82
  %96 = load i32, i32* %8, align 4
  %97 = add nsw i32 %96, 1
  store i32 %97, i32* %8, align 4
  br label %78

98:                                               ; preds = %78
  %99 = getelementptr inbounds [100 x i8], [100 x i8]* %1, i64 0, i64 0
  %100 = getelementptr inbounds [100 x i8], [100 x i8]* %4, i64 0, i64 0
  %101 = call i8* @strcat(i8* %99, i8* %100) #6
  %102 = getelementptr inbounds [100 x i8], [100 x i8]* %1, i64 0, i64 0
  %103 = getelementptr inbounds [100 x i8], [100 x i8]* %2, i64 0, i64 0
  %104 = call i8* @strcat(i8* %102, i8* %103) #6
  %105 = getelementptr inbounds [100 x i8], [100 x i8]* %1, i64 0, i64 0
  %106 = call i64 @strlen(i8* %105) #5
  %107 = trunc i64 %106 to i32
  store i32 %107, i32* %9, align 4
  store i32 0, i32* %8, align 4
  br label %108

108:                                              ; preds = %118, %98
  %109 = load i32, i32* %8, align 4
  %110 = load i32, i32* %9, align 4
  %111 = load i32, i32* %6, align 4
  %112 = sub nsw i32 %110, %111
  %113 = icmp slt i32 %109, %112
  br i1 %113, label %114, label %121

114:                                              ; preds = %108
  %115 = load i32, i32* %8, align 4
  %116 = sext i32 %115 to i64
  %117 = getelementptr inbounds [100 x i8], [100 x i8]* %2, i64 0, i64 %116
  store i8 0, i8* %117, align 1
  br label %118

118:                                              ; preds = %114
  %119 = load i32, i32* %8, align 4
  %120 = add nsw i32 %119, 1
  store i32 %120, i32* %8, align 4
  br label %108

121:                                              ; preds = %108
  store i32 0, i32* %8, align 4
  br label %122

122:                                              ; preds = %130, %121
  %123 = load i32, i32* %8, align 4
  %124 = load i32, i32* %10, align 4
  %125 = icmp slt i32 %123, %124
  br i1 %125, label %126, label %133

126:                                              ; preds = %122
  %127 = load i32, i32* %8, align 4
  %128 = sext i32 %127 to i64
  %129 = getelementptr inbounds [100 x i8], [100 x i8]* %5, i64 0, i64 %128
  store i8 0, i8* %129, align 1
  br label %130

130:                                              ; preds = %126
  %131 = load i32, i32* %8, align 4
  %132 = add nsw i32 %131, 1
  store i32 %132, i32* %8, align 4
  br label %122

133:                                              ; preds = %122
  br label %147

134:                                              ; preds = %53
  store i32 0, i32* %8, align 4
  br label %135

135:                                              ; preds = %143, %134
  %136 = load i32, i32* %8, align 4
  %137 = load i32, i32* %10, align 4
  %138 = icmp slt i32 %136, %137
  br i1 %138, label %139, label %146

139:                                              ; preds = %135
  %140 = load i32, i32* %8, align 4
  %141 = sext i32 %140 to i64
  %142 = getelementptr inbounds [100 x i8], [100 x i8]* %5, i64 0, i64 %141
  store i8 0, i8* %142, align 1
  br label %143

143:                                              ; preds = %139
  %144 = load i32, i32* %8, align 4
  %145 = add nsw i32 %144, 1
  store i32 %145, i32* %8, align 4
  br label %135

146:                                              ; preds = %135
  br label %147

147:                                              ; preds = %146, %133
  br label %148

148:                                              ; preds = %147, %43
  br label %149

149:                                              ; preds = %148
  %150 = load i32, i32* %6, align 4
  %151 = add nsw i32 %150, 1
  store i32 %151, i32* %6, align 4
  br label %25

152:                                              ; preds = %25
  %153 = getelementptr inbounds [100 x i8], [100 x i8]* %1, i64 0, i64 0
  %154 = call i32 @puts(i8* %153)
  ret void
}

; Function Attrs: argmemonly nounwind willreturn
declare void @llvm.memset.p0i8.i64(i8* nocapture writeonly, i8, i64, i1 immarg) #1

declare dso_local i32 @gets(...) #2

; Function Attrs: nounwind readonly
declare dso_local i64 @strlen(i8*) #3

; Function Attrs: nounwind readonly
declare dso_local i32 @strcmp(i8*, i8*) #3

; Function Attrs: nounwind
declare dso_local i8* @strcat(i8*, i8*) #4

declare dso_local i32 @puts(i8*) #2


!llvm.module.flags = !{!0}
!llvm.ident = !{!1}

!0 = !{i32 1, !"wchar_size", i32 4}
!1 = !{!"clang version 10.0.0-4ubuntu1 "}
